target datalayout = "e-m:e-p270:32:32-p271:32:32-p272:64:64-i64:64-i128:128-f80:128-n8:16:32:64-S128"
target triple = "x86_64-pc-linux-gnu"

%struct.ZSTDv06_frameParams_s = type { i64, i32 }
%struct.ZBUFFv06_DCtx_s = type { ptr, %struct.ZSTDv06_frameParams_s, i32, ptr, i64, i64, ptr, i64, i64, i64, i64, [13 x i8], i64 }

; Function Attrs: nounwind uwtable
define i64 @ZBUFFv06_decompressInitDictionary(ptr noundef %0, ptr noundef %1, i64 noundef %2) #0 {
  %4 = alloca ptr, align 8
  %5 = alloca ptr, align 8
  %6 = alloca i64, align 8
  store ptr %0, ptr %4, align 8, !tbaa !99
  store ptr %1, ptr %5, align 8, !tbaa !12
  store i64 %2, ptr %6, align 8, !tbaa !3
  %7 = load ptr, ptr %4, align 8, !tbaa !99
  %8 = getelementptr inbounds nuw %struct.ZBUFFv06_DCtx_s, ptr %7, i32 0, i32 2
  store i32 1, ptr %8, align 8, !tbaa !103
  %9 = load ptr, ptr %4, align 8, !tbaa !99
  %10 = getelementptr inbounds nuw %struct.ZBUFFv06_DCtx_s, ptr %9, i32 0, i32 9
  store i64 0, ptr %10, align 8, !tbaa !106
  %11 = load ptr, ptr %4, align 8, !tbaa !99
  %12 = getelementptr inbounds nuw %struct.ZBUFFv06_DCtx_s, ptr %11, i32 0, i32 8
  store i64 0, ptr %12, align 8, !tbaa !107
  %13 = load ptr, ptr %4, align 8, !tbaa !99
  %14 = getelementptr inbounds nuw %struct.ZBUFFv06_DCtx_s, ptr %13, i32 0, i32 5
  store i64 0, ptr %14, align 8, !tbaa !108
  %15 = load ptr, ptr %4, align 8, !tbaa !99
  %16 = getelementptr inbounds nuw %struct.ZBUFFv06_DCtx_s, ptr %15, i32 0, i32 12
  store i64 0, ptr %16, align 8, !tbaa !109
  %17 = load ptr, ptr %4, align 8, !tbaa !99
  %18 = getelementptr inbounds nuw %struct.ZBUFFv06_DCtx_s, ptr %17, i32 0, i32 0
  %19 = load ptr, ptr %18, align 8, !tbaa !101
  %20 = load ptr, ptr %5, align 8, !tbaa !12
  %21 = load i64, ptr %6, align 8, !tbaa !3
  %22 = call i64 @ZSTDv06_decompressBegin_usingDict(ptr noundef %19, ptr noundef %20, i64 noundef %21)
  ret i64 %22
}