; Function Attrs: nofree norecurse nosync nounwind memory(readwrite, inaccessiblemem: none) uwtable
define range(i64 -30, 1) i64 @ZBUFFv06_decompressInitDictionary(ptr noundef captures(none) initializes((24, 28), (48, 56), (72, 88), (112, 120)) %0, ptr noundef %1, i64 noundef %2) local_unnamed_addr #22 {
  %4 = getelementptr inbounds nuw i8, ptr %0, i64 24
  store i32 1, ptr %4, align 8, !tbaa !98
  %5 = getelementptr inbounds nuw i8, ptr %0, i64 72
  %6 = getelementptr inbounds nuw i8, ptr %0, i64 48
  store i64 0, ptr %6, align 8, !tbaa !101
  %7 = getelementptr inbounds nuw i8, ptr %0, i64 112
  store i64 0, ptr %7, align 8, !tbaa !102
  tail call void @llvm.memset.p0.i64(ptr noundef nonnull align 8 dereferenceable(16) %5, i8 0, i64 16, i1 false)
  %8 = load ptr, ptr %0, align 8, !tbaa !95
  %9 = tail call i64 @ZSTDv06_decompressBegin_usingDict(ptr noundef %8, ptr noundef %1, i64 noundef %2)
  ret i64 %9
}